; Function Attrs: nounwind uwtable
define range(i32 0, 2) i32 @Abc_NtkLogicHasSimpleCos(ptr noundef captures(none) %0) local_unnamed_addr #0 {
  %2 = getelementptr inbounds nuw i8, ptr %0, i64 232
  %3 = load ptr, ptr %2, align 8
  %.not.i = icmp eq ptr %3, null
  br i1 %.not.i, label %4, label %Abc_NtkIncrementTravId.exit

4:                                                ; preds = %1
  %5 = getelementptr inbounds nuw i8, ptr %0, i64 224
  %6 = getelementptr i8, ptr %0, i64 32
  %.val.i = load ptr, ptr %6, align 8
  %7 = getelementptr i8, ptr %.val.i, i64 4
  %.val.val.i = load i32, ptr %7, align 4
  %8 = add nsw i32 %.val.val.i, 500
  %9 = load i32, ptr %5, align 8
  %.not.i.i.i = icmp slt i32 %9, %8
  br i1 %.not.i.i.i, label %10, label %Vec_IntGrow.exit.i.i

10:                                               ; preds = %4
  %11 = sext i32 %8 to i64
  %12 = shl nsw i64 %11, 2
  %13 = tail call noalias ptr @malloc(i64 noundef %12) #30
  store ptr %13, ptr %2, align 8
  store i32 %8, ptr %5, align 8
  br label %Vec_IntGrow.exit.i.i

Vec_IntGrow.exit.i.i:                             ; preds = %10, %4
  %14 = icmp sgt i32 %.val.val.i, -500
  br i1 %14, label %.lr.ph.i.i, label %Vec_IntFill.exit.i

.lr.ph.i.i:                                       ; preds = %Vec_IntGrow.exit.i.i
  %wide.trip.count.i.i = zext nneg i32 %8 to i64
  br label %15

15:                                               ; preds = %15, %.lr.ph.i.i
  %indvars.iv.i.i = phi i64 [ 0, %.lr.ph.i.i ], [ %indvars.iv.next.i.i, %15 ]
  %16 = load ptr, ptr %2, align 8
  %17 = getelementptr inbounds nuw i32, ptr %16, i64 %indvars.iv.i.i
  store i32 0, ptr %17, align 4
  %indvars.iv.next.i.i = add nuw nsw i64 %indvars.iv.i.i, 1
  %exitcond.not.i.i = icmp eq i64 %indvars.iv.next.i.i, %wide.trip.count.i.i
  br i1 %exitcond.not.i.i, label %Vec_IntFill.exit.i, label %15, !llvm.loop !50

Vec_IntFill.exit.i:                               ; preds = %15, %Vec_IntGrow.exit.i.i
  %18 = getelementptr inbounds nuw i8, ptr %0, i64 228
  store i32 %8, ptr %18, align 4
  br label %Abc_NtkIncrementTravId.exit

Abc_NtkIncrementTravId.exit:                      ; preds = %1, %Vec_IntFill.exit.i
  %19 = getelementptr inbounds nuw i8, ptr %0, i64 216
  %20 = load i32, ptr %19, align 8
  %21 = add nsw i32 %20, 1
  store i32 %21, ptr %19, align 8
  %22 = getelementptr i8, ptr %0, i64 64
  %.val2534 = load ptr, ptr %22, align 8
  %23 = getelementptr i8, ptr %.val2534, i64 4
  %.val25.val35 = load i32, ptr %23, align 4
  %24 = icmp sgt i32 %.val25.val35, 0
  br i1 %24, label %.lr.ph, label %.critedge

.lr.ph:                                           ; preds = %Abc_NtkIncrementTravId.exit, %68
  %indvars.iv = phi i64 [ %indvars.iv.next, %68 ], [ 0, %Abc_NtkIncrementTravId.exit ]
  %.val2537 = phi ptr [ %.val25, %68 ], [ %.val2534, %Abc_NtkIncrementTravId.exit ]
  %25 = getelementptr i8, ptr %.val2537, i64 8
  %.val26.val = load ptr, ptr %25, align 8
  %26 = getelementptr inbounds nuw ptr, ptr %.val26.val, i64 %indvars.iv
  %27 = load ptr, ptr %26, align 8
  %.val22 = load ptr, ptr %27, align 8
  %28 = getelementptr i8, ptr %27, i64 32
  %.val23 = load ptr, ptr %28, align 8
  %29 = getelementptr i8, ptr %.val22, i64 32
  %.val22.val = load ptr, ptr %29, align 8
  %.val23.val = load i32, ptr %.val23, align 4
  %30 = getelementptr i8, ptr %.val22.val, i64 8
  %.val22.val.val = load ptr, ptr %30, align 8
  %31 = sext i32 %.val23.val to i64
  %32 = getelementptr inbounds ptr, ptr %.val22.val.val, i64 %31
  %33 = load ptr, ptr %32, align 8
  %34 = getelementptr i8, ptr %27, i64 20
  %.val = load i32, ptr %34, align 4
  %35 = and i32 %.val, 1024
  %.not = icmp eq i32 %35, 0
  br i1 %.not, label %36, label %.critedge

36:                                               ; preds = %.lr.ph
  %37 = getelementptr i8, ptr %33, i64 20
  %.val24 = load i32, ptr %37, align 4
  %38 = and i32 %.val24, 15
  switch i32 %38, label %43 [
    i32 5, label %39
    i32 2, label %39
  ]

39:                                               ; preds = %36, %36
  %40 = tail call ptr @Abc_ObjName(ptr noundef nonnull %33) #28
  %41 = tail call ptr @Abc_ObjName(ptr noundef nonnull %27) #28
  %42 = tail call i32 @strcmp(ptr noundef nonnull dereferenceable(1) %40, ptr noundef nonnull dereferenceable(1) %41) #31
  %.not19 = icmp eq i32 %42, 0
  br i1 %.not19, label %43, label %.critedge

43:                                               ; preds = %36, %39
  %.val2.i = load ptr, ptr %33, align 8
  %44 = getelementptr i8, ptr %33, i64 16
  %.val3.i = load i32, ptr %44, align 8
  %45 = getelementptr inbounds nuw i8, ptr %.val2.i, i64 224
  %46 = add nsw i32 %.val3.i, 1
  tail call fastcc void @Vec_IntFillExtra(ptr noundef nonnull %45, i32 noundef %46)
  %47 = getelementptr i8, ptr %.val2.i, i64 232
  %.val.i.i.i = load ptr, ptr %47, align 8
  %48 = sext i32 %.val3.i to i64
  %49 = getelementptr inbounds i32, ptr %.val.i.i.i, i64 %48
  %50 = load i32, ptr %49, align 4
  %.val.i29 = load ptr, ptr %33, align 8
  %51 = getelementptr inbounds nuw i8, ptr %.val.i29, i64 216
  %52 = load i32, ptr %51, align 8
  %.not33 = icmp eq i32 %50, %52
  br i1 %.not33, label %63, label %53

53:                                               ; preds = %43
  %54 = tail call ptr @Abc_ObjName(ptr noundef nonnull %27) #28
  %55 = getelementptr inbounds nuw i8, ptr %33, i64 8
  store ptr %54, ptr %55, align 8
  %.val27 = load ptr, ptr %33, align 8
  %.val28 = load i32, ptr %44, align 8
  %56 = getelementptr inbounds nuw i8, ptr %.val27, i64 216
  %57 = load i32, ptr %56, align 8
  %58 = getelementptr inbounds nuw i8, ptr %.val27, i64 224
  %59 = add nsw i32 %.val28, 1
  tail call fastcc void @Vec_IntFillExtra(ptr noundef nonnull %58, i32 noundef %59)
  %60 = getelementptr i8, ptr %.val27, i64 232
  %.val.i.i.i30 = load ptr, ptr %60, align 8
  %61 = sext i32 %.val28 to i64
  %62 = getelementptr inbounds i32, ptr %.val.i.i.i30, i64 %61
  store i32 %57, ptr %62, align 4
  br label %68

63:                                               ; preds = %43
  %64 = getelementptr inbounds nuw i8, ptr %33, i64 8
  %65 = load ptr, ptr %64, align 8
  %66 = tail call ptr @Abc_ObjName(ptr noundef nonnull %27) #28
  %67 = tail call i32 @strcmp(ptr noundef nonnull dereferenceable(1) %65, ptr noundef nonnull dereferenceable(1) %66) #31
  %.not21 = icmp eq i32 %67, 0
  br i1 %.not21, label %68, label %.critedge

68:                                               ; preds = %63, %53
  %indvars.iv.next = add nuw nsw i64 %indvars.iv, 1
  %.val25 = load ptr, ptr %22, align 8
  %69 = getelementptr i8, ptr %.val25, i64 4
  %.val25.val = load i32, ptr %69, align 4
  %70 = sext i32 %.val25.val to i64
  %71 = icmp slt i64 %indvars.iv.next, %70
  br i1 %71, label %.lr.ph, label %.critedge, !llvm.loop !51

.critedge:                                        ; preds = %.lr.ph, %39, %63, %68, %Abc_NtkIncrementTravId.exit
  %.017 = phi i32 [ 1, %Abc_NtkIncrementTravId.exit ], [ 1, %68 ], [ 0, %63 ], [ 0, %39 ], [ 0, %.lr.ph ]
  ret i32 %.017
}